target datalayout = "e-m:e-p270:32:32-p271:32:32-p272:64:64-i64:64-i128:128-f80:128-n8:16:32:64-S128"
target triple = "x86_64-pc-linux-gnu"

%struct.OSSL_TIME = type { i64 }
%struct.ssl_st = type { i32, ptr, ptr, ptr, %struct.CRYPTO_REF_COUNT, ptr, %struct.crypto_ex_data_st }
%struct.CRYPTO_REF_COUNT = type { i32 }
%struct.crypto_ex_data_st = type { ptr, ptr }
%struct.ssl_connection_st = type { %struct.ssl_st, ptr, i32, ptr, ptr, ptr, i32, ptr, i32, i32, i32, i32, %struct.OSSL_TIME, %struct.OSSL_TIME, %struct.ossl_statem_st, i32, ptr, ptr, i64, i64, i64, %struct.ossl_quic_tls_callbacks_st, ptr, ptr, %struct.anon, ptr, ptr, ptr, i32, ptr, %struct.ssl_dane_st, ptr, ptr, ptr, ptr, i32, [64 x i8], [64 x i8], [64 x i8], [64 x i8], [64 x i8], [64 x i8], [64 x i8], [64 x i8], [64 x i8], [64 x i8], [64 x i8], [64 x i8], ptr, [64 x i8], i64, i32, i64, [32 x i8], ptr, ptr, ptr, i64, ptr, [32 x i8], i64, i32, ptr, ptr, i32, i32, ptr, ptr, ptr, ptr, ptr, i64, ptr, ptr, i64, i32, i32, i32, i64, i32, i32, i64, i64, i64, %struct.anon.1, ptr, i32, ptr, ptr, ptr, i32, ptr, ptr, ptr, i32, i32, i32, i32, ptr, i64, i32, ptr, %struct.srp_ctx_st, ptr, %struct.record_layer_st, ptr, ptr, ptr, ptr, i64, i32, i32, i32, i64, i64, i64, ptr, ptr, ptr, ptr, ptr, i64, ptr, i64, ptr, i64 }
%struct.ossl_statem_st = type { i32, i32, i32, i32, i32, i32, i32, i32, i32, i32, i32, i32, i32, ptr, ptr, ptr, i8 }
%struct.ossl_quic_tls_callbacks_st = type { ptr, ptr, ptr, ptr, ptr, ptr }
%struct.anon = type { i64, [32 x i8], [32 x i8], ptr, ptr, i32, i32, i32, i32, [2 x i8], i32, i32, i32, i32, %struct.anon.0, [64 x i8], i64, [64 x i8], i64, i32, i32, ptr, i64, ptr, i64, i32, i8, i8, i16, ptr, i16 }
%struct.anon.0 = type { [128 x i8], i64, [128 x i8], i64, i64, i32, ptr, ptr, [4 x ptr], [4 x i16], i64, i32, ptr, i64, ptr, i64, ptr, ptr, ptr, i32, i64, ptr, i32, ptr, i64, ptr, i64, ptr, i64, ptr, ptr, ptr, ptr, i64, i64, ptr, ptr, i32, i32, i32, i32 }
%struct.ssl_dane_st = type { ptr, ptr, ptr, ptr, ptr, i32, i32, i32, i64 }
%struct.anon.1 = type { [29 x i8], ptr, ptr, ptr, i32, ptr, i16, i32, %struct.anon.2, i32, i32, i64, ptr, i64, ptr, i64, ptr, i64, ptr, i64, ptr, i64, ptr, ptr, ptr, ptr, ptr, ptr, ptr, i64, ptr, i64, i32, i32, i32, i32, ptr, i64, i32, i8, i32, [4 x i32], i32, i8, i8, i8, i8 }
%struct.anon.2 = type { ptr, ptr, ptr, i64 }
%struct.srp_ctx_st = type { ptr, ptr, ptr, ptr, ptr, ptr, ptr, ptr, ptr, ptr, ptr, ptr, ptr, ptr, i32, i64 }
%struct.record_layer_st = type { ptr, ptr, ptr, ptr, ptr, ptr, ptr, ptr, i64, i32, i64, [4 x i8], i64, i64, i8, ptr, i32, ptr, ptr, ptr, i64, i64, i64, i64, [32 x %struct.tls_record_st] }
%struct.tls_record_st = type { ptr, i32, i8, ptr, ptr, i64, i64, i16, [8 x i8] }

; Function Attrs: nounwind uwtable
define i32 @ssl_set_client_disabled(ptr noundef %0) #1 {
  %2 = alloca i32, align 4
  %3 = alloca ptr, align 8
  store ptr %0, ptr %3, align 8, !tbaa !25
  %4 = load ptr, ptr %3, align 8, !tbaa !25
  %5 = getelementptr inbounds nuw %struct.ssl_connection_st, ptr %4, i32 0, i32 24
  %6 = getelementptr inbounds nuw %struct.anon, ptr %5, i32 0, i32 14
  %7 = getelementptr inbounds nuw %struct.anon.0, ptr %6, i32 0, i32 38
  store i32 0, ptr %7, align 4, !tbaa !252
  %8 = load ptr, ptr %3, align 8, !tbaa !25
  %9 = getelementptr inbounds nuw %struct.ssl_connection_st, ptr %8, i32 0, i32 24
  %10 = getelementptr inbounds nuw %struct.anon, ptr %9, i32 0, i32 14
  %11 = getelementptr inbounds nuw %struct.anon.0, ptr %10, i32 0, i32 37
  store i32 0, ptr %11, align 8, !tbaa !253
  %12 = load ptr, ptr %3, align 8, !tbaa !25
  %13 = getelementptr inbounds nuw %struct.ssl_connection_st, ptr %12, i32 0, i32 24
  %14 = getelementptr inbounds nuw %struct.anon, ptr %13, i32 0, i32 14
  %15 = getelementptr inbounds nuw %struct.anon.0, ptr %14, i32 0, i32 38
  %16 = load ptr, ptr %3, align 8, !tbaa !25
  call void @ssl_set_sig_mask(ptr noundef %15, ptr noundef %16, i32 noundef 327694)
  %17 = load ptr, ptr %3, align 8, !tbaa !25
  %18 = load ptr, ptr %3, align 8, !tbaa !25
  %19 = getelementptr inbounds nuw %struct.ssl_connection_st, ptr %18, i32 0, i32 24
  %20 = getelementptr inbounds nuw %struct.anon, ptr %19, i32 0, i32 14
  %21 = getelementptr inbounds nuw %struct.anon.0, ptr %20, i32 0, i32 39
  %22 = load ptr, ptr %3, align 8, !tbaa !25
  %23 = getelementptr inbounds nuw %struct.ssl_connection_st, ptr %22, i32 0, i32 24
  %24 = getelementptr inbounds nuw %struct.anon, ptr %23, i32 0, i32 14
  %25 = getelementptr inbounds nuw %struct.anon.0, ptr %24, i32 0, i32 40
  %26 = call i32 @ssl_get_min_max_version(ptr noundef %17, ptr noundef %21, ptr noundef %25, ptr noundef null)
  %27 = icmp ne i32 %26, 0
  br i1 %27, label %28, label %29

28:                                               ; preds = %1
  store i32 0, ptr %2, align 4
  br label %68

29:                                               ; preds = %1
  %30 = load ptr, ptr %3, align 8, !tbaa !25
  %31 = getelementptr inbounds nuw %struct.ssl_connection_st, ptr %30, i32 0, i32 66
  %32 = load ptr, ptr %31, align 8, !tbaa !254
  %33 = icmp ne ptr %32, null
  br i1 %33, label %47, label %34

34:                                               ; preds = %29
  %35 = load ptr, ptr %3, align 8, !tbaa !25
  %36 = getelementptr inbounds nuw %struct.ssl_connection_st, ptr %35, i32 0, i32 24
  %37 = getelementptr inbounds nuw %struct.anon, ptr %36, i32 0, i32 14
  %38 = getelementptr inbounds nuw %struct.anon.0, ptr %37, i32 0, i32 38
  %39 = load i32, ptr %38, align 4, !tbaa !252
  %40 = or i32 %39, 16
  store i32 %40, ptr %38, align 4, !tbaa !252
  %41 = load ptr, ptr %3, align 8, !tbaa !25
  %42 = getelementptr inbounds nuw %struct.ssl_connection_st, ptr %41, i32 0, i32 24
  %43 = getelementptr inbounds nuw %struct.anon, ptr %42, i32 0, i32 14
  %44 = getelementptr inbounds nuw %struct.anon.0, ptr %43, i32 0, i32 37
  %45 = load i32, ptr %44, align 8, !tbaa !253
  %46 = or i32 %45, 456
  store i32 %46, ptr %44, align 8, !tbaa !253
  br label %47

47:                                               ; preds = %34, %29
  %48 = load ptr, ptr %3, align 8, !tbaa !25
  %49 = getelementptr inbounds nuw %struct.ssl_connection_st, ptr %48, i32 0, i32 102
  %50 = getelementptr inbounds nuw %struct.srp_ctx_st, ptr %49, i32 0, i32 15
  %51 = load i64, ptr %50, align 8, !tbaa !255
  %52 = and i64 %51, 32
  %53 = icmp ne i64 %52, 0
  br i1 %53, label %67, label %54

54:                                               ; preds = %47
  %55 = load ptr, ptr %3, align 8, !tbaa !25
  %56 = getelementptr inbounds nuw %struct.ssl_connection_st, ptr %55, i32 0, i32 24
  %57 = getelementptr inbounds nuw %struct.anon, ptr %56, i32 0, i32 14
  %58 = getelementptr inbounds nuw %struct.anon.0, ptr %57, i32 0, i32 38
  %59 = load i32, ptr %58, align 4, !tbaa !252
  %60 = or i32 %59, 64
  store i32 %60, ptr %58, align 4, !tbaa !252
  %61 = load ptr, ptr %3, align 8, !tbaa !25
  %62 = getelementptr inbounds nuw %struct.ssl_connection_st, ptr %61, i32 0, i32 24
  %63 = getelementptr inbounds nuw %struct.anon, ptr %62, i32 0, i32 14
  %64 = getelementptr inbounds nuw %struct.anon.0, ptr %63, i32 0, i32 37
  %65 = load i32, ptr %64, align 8, !tbaa !253
  %66 = or i32 %65, 32
  store i32 %66, ptr %64, align 8, !tbaa !253
  br label %67

67:                                               ; preds = %54, %47
  store i32 1, ptr %2, align 4
  br label %68

68:                                               ; preds = %67, %28
  %69 = load i32, ptr %2, align 4
  ret i32 %69
}