; Function Attrs: nounwind uwtable
define range(i32 0, 2) i32 @ssl_set_client_disabled(ptr noundef initializes((1040, 1048)) %0) local_unnamed_addr #2 {
  %2 = getelementptr inbounds nuw i8, ptr %0, i64 1044
  store i32 0, ptr %2, align 4, !tbaa !218
  %3 = getelementptr inbounds nuw i8, ptr %0, i64 1040
  store i32 0, ptr %3, align 8, !tbaa !219
  tail call void @ssl_set_sig_mask(ptr noundef nonnull %2, ptr noundef %0, i32 noundef 327694)
  %4 = getelementptr inbounds nuw i8, ptr %0, i64 1048
  %5 = getelementptr inbounds nuw i8, ptr %0, i64 1052
  %6 = tail call i32 @ssl_get_min_max_version(ptr noundef %0, ptr noundef nonnull %4, ptr noundef nonnull %5, ptr noundef null) #14
  %.not = icmp eq i32 %6, 0
  br i1 %.not, label %7, label %24

7:                                                ; preds = %1
  %8 = getelementptr inbounds nuw i8, ptr %0, i64 2416
  %9 = load ptr, ptr %8, align 8, !tbaa !220
  %.not13 = icmp eq ptr %9, null
  br i1 %.not13, label %10, label %15

10:                                               ; preds = %7
  %11 = load i32, ptr %2, align 4, !tbaa !218
  %12 = or i32 %11, 16
  store i32 %12, ptr %2, align 4, !tbaa !218
  %13 = load i32, ptr %3, align 8, !tbaa !219
  %14 = or i32 %13, 456
  store i32 %14, ptr %3, align 8, !tbaa !219
  br label %15

15:                                               ; preds = %10, %7
  %16 = getelementptr inbounds nuw i8, ptr %0, i64 3144
  %17 = load i64, ptr %16, align 8, !tbaa !221
  %18 = and i64 %17, 32
  %.not14 = icmp eq i64 %18, 0
  br i1 %.not14, label %19, label %24

19:                                               ; preds = %15
  %20 = load i32, ptr %2, align 4, !tbaa !218
  %21 = or i32 %20, 64
  store i32 %21, ptr %2, align 4, !tbaa !218
  %22 = load i32, ptr %3, align 8, !tbaa !219
  %23 = or i32 %22, 32
  store i32 %23, ptr %3, align 8, !tbaa !219
  br label %24

24:                                               ; preds = %15, %19, %1
  %.0 = phi i32 [ 0, %1 ], [ 1, %19 ], [ 1, %15 ]
  ret i32 %.0
}